target datalayout = "e-m:e-p270:32:32-p271:32:32-p272:64:64-i64:64-i128:128-f80:128-n8:16:32:64-S128"
target triple = "x86_64-pc-linux-gnu"

%struct.SurfaceDataRasInfo = type { %struct.SurfaceDataBounds, ptr, i32, i32, i32, i32, ptr, ptr, ptr, ptr, ptr, ptr, i32, %union.anon.0 }
%struct.SurfaceDataBounds = type { i32, i32, i32, i32 }
%union.anon.0 = type { ptr, [56 x i8] }

; Function Attrs: nounwind uwtable
define hidden void @IntArgbBmToIntBgrXparBgCopy(ptr noundef %0, ptr noundef %1, i32 noundef %2, i32 noundef %3, i32 noundef %4, ptr noundef %5, ptr noundef %6, ptr noundef %7, ptr noundef %8) #1 {
  %10 = alloca ptr, align 8
  %11 = alloca ptr, align 8
  %12 = alloca i32, align 4
  %13 = alloca i32, align 4
  %14 = alloca i32, align 4
  %15 = alloca ptr, align 8
  %16 = alloca ptr, align 8
  %17 = alloca ptr, align 8
  %18 = alloca ptr, align 8
  %19 = alloca ptr, align 8
  %20 = alloca ptr, align 8
  %21 = alloca i32, align 4
  %22 = alloca i32, align 4
  %23 = alloca i32, align 4
  %24 = alloca i32, align 4
  %25 = alloca i32, align 4
  store ptr %0, ptr %10, align 8
  store ptr %1, ptr %11, align 8
  store i32 %2, ptr %12, align 4
  store i32 %3, ptr %13, align 4
  store i32 %4, ptr %14, align 4
  store ptr %5, ptr %15, align 8
  store ptr %6, ptr %16, align 8
  store ptr %7, ptr %17, align 8
  store ptr %8, ptr %18, align 8
  br label %26

26:                                               ; preds = %9
  %27 = load ptr, ptr %10, align 8
  store ptr %27, ptr %19, align 8
  %28 = load ptr, ptr %11, align 8
  store ptr %28, ptr %20, align 8
  %29 = load ptr, ptr %15, align 8
  %30 = getelementptr inbounds %struct.SurfaceDataRasInfo, ptr %29, i32 0, i32 4
  %31 = load i32, ptr %30, align 8
  store i32 %31, ptr %21, align 4
  %32 = load ptr, ptr %16, align 8
  %33 = getelementptr inbounds %struct.SurfaceDataRasInfo, ptr %32, i32 0, i32 4
  %34 = load i32, ptr %33, align 8
  store i32 %34, ptr %22, align 4
  %35 = load i32, ptr %12, align 4
  %36 = mul i32 %35, 4
  %37 = load i32, ptr %21, align 4
  %38 = sub i32 %37, %36
  store i32 %38, ptr %21, align 4
  %39 = load i32, ptr %12, align 4
  %40 = mul i32 %39, 4
  %41 = load i32, ptr %22, align 4
  %42 = sub i32 %41, %40
  store i32 %42, ptr %22, align 4
  br label %43

43:                                               ; preds = %97, %26
  %44 = load i32, ptr %12, align 4
  store i32 %44, ptr %23, align 4
  br label %45

45:                                               ; preds = %80, %43
  br label %46

46:                                               ; preds = %45
  %47 = load ptr, ptr %19, align 8
  %48 = getelementptr inbounds i32, ptr %47, i64 0
  %49 = load i32, ptr %48, align 4
  store i32 %49, ptr %24, align 4
  %50 = load i32, ptr %24, align 4
  %51 = ashr i32 %50, 24
  %52 = icmp eq i32 %51, 0
  br i1 %52, label %53, label %57

53:                                               ; preds = %46
  %54 = load i32, ptr %14, align 4
  %55 = load ptr, ptr %20, align 8
  %56 = getelementptr inbounds i32, ptr %55, i64 0
  store i32 %54, ptr %56, align 4
  br label %70

57:                                               ; preds = %46
  %58 = load i32, ptr %24, align 4
  store i32 %58, ptr %25, align 4
  %59 = load i32, ptr %25, align 4
  %60 = shl i32 %59, 16
  %61 = load i32, ptr %25, align 4
  %62 = and i32 %61, 65280
  %63 = or i32 %60, %62
  %64 = load i32, ptr %25, align 4
  %65 = ashr i32 %64, 16
  %66 = and i32 %65, 255
  %67 = or i32 %63, %66
  %68 = load ptr, ptr %20, align 8
  %69 = getelementptr inbounds i32, ptr %68, i64 0
  store i32 %67, ptr %69, align 4
  br label %70

70:                                               ; preds = %57, %53
  br label %71

71:                                               ; preds = %70
  %72 = load ptr, ptr %19, align 8
  %73 = ptrtoint ptr %72 to i64
  %74 = add nsw i64 %73, 4
  %75 = inttoptr i64 %74 to ptr
  store ptr %75, ptr %19, align 8
  %76 = load ptr, ptr %20, align 8
  %77 = ptrtoint ptr %76 to i64
  %78 = add nsw i64 %77, 4
  %79 = inttoptr i64 %78 to ptr
  store ptr %79, ptr %20, align 8
  br label %80

80:                                               ; preds = %71
  %81 = load i32, ptr %23, align 4
  %82 = add i32 %81, -1
  store i32 %82, ptr %23, align 4
  %83 = icmp ugt i32 %82, 0
  br i1 %83, label %45, label %84, !llvm.loop !43

84:                                               ; preds = %80
  %85 = load ptr, ptr %19, align 8
  %86 = ptrtoint ptr %85 to i64
  %87 = load i32, ptr %21, align 4
  %88 = sext i32 %87 to i64
  %89 = add nsw i64 %86, %88
  %90 = inttoptr i64 %89 to ptr
  store ptr %90, ptr %19, align 8
  %91 = load ptr, ptr %20, align 8
  %92 = ptrtoint ptr %91 to i64
  %93 = load i32, ptr %22, align 4
  %94 = sext i32 %93 to i64
  %95 = add nsw i64 %92, %94
  %96 = inttoptr i64 %95 to ptr
  store ptr %96, ptr %20, align 8
  br label %97

97:                                               ; preds = %84
  %98 = load i32, ptr %13, align 4
  %99 = add i32 %98, -1
  store i32 %99, ptr %13, align 4
  %100 = icmp ugt i32 %99, 0
  br i1 %100, label %43, label %101, !llvm.loop !44

101:                                              ; preds = %97
  br label %102

102:                                              ; preds = %101
  ret void
}