; Function Attrs: nofree norecurse nosync nounwind memory(readwrite, inaccessiblemem: none) uwtable
define hidden void @IntArgbBmToIntBgrXparBgCopy(ptr noundef %0, ptr noundef %1, i32 noundef %2, i32 noundef %3, i32 noundef %4, ptr nocapture noundef readonly %5, ptr nocapture noundef readonly %6, ptr nocapture readnone %7, ptr nocapture readnone %8) #1 {
  %10 = getelementptr inbounds i8, ptr %5, i64 32
  %11 = load i32, ptr %10, align 8
  %12 = getelementptr inbounds i8, ptr %6, i64 32
  %13 = load i32, ptr %12, align 8
  %14 = shl i32 %2, 2
  %15 = sub i32 %11, %14
  %16 = sub i32 %13, %14
  %17 = sext i32 %15 to i64
  %18 = sext i32 %16 to i64
  br label %19

19:                                               ; preds = %38, %9
  %.027 = phi ptr [ %1, %9 ], [ %42, %38 ]
  %.025 = phi ptr [ %0, %9 ], [ %40, %38 ]
  %.0 = phi i32 [ %3, %9 ], [ %43, %38 ]
  br label %20

20:                                               ; preds = %30, %19
  %.128 = phi ptr [ %.027, %19 ], [ %36, %30 ]
  %.026 = phi i32 [ %2, %19 ], [ %37, %30 ]
  %.1 = phi ptr [ %.025, %19 ], [ %33, %30 ]
  %21 = load i32, ptr %.1, align 4
  %22 = icmp ult i32 %21, 16777216
  br i1 %22, label %30, label %23

23:                                               ; preds = %20
  %24 = shl i32 %21, 16
  %25 = and i32 %21, 65280
  %26 = or disjoint i32 %24, %25
  %27 = lshr i32 %21, 16
  %28 = and i32 %27, 255
  %29 = or disjoint i32 %26, %28
  br label %30

30:                                               ; preds = %20, %23
  %storemerge = phi i32 [ %29, %23 ], [ %4, %20 ]
  store i32 %storemerge, ptr %.128, align 4
  %31 = ptrtoint ptr %.1 to i64
  %32 = add nsw i64 %31, 4
  %33 = inttoptr i64 %32 to ptr
  %34 = ptrtoint ptr %.128 to i64
  %35 = add nsw i64 %34, 4
  %36 = inttoptr i64 %35 to ptr
  %37 = add i32 %.026, -1
  %.not = icmp eq i32 %37, 0
  br i1 %.not, label %38, label %20, !llvm.loop !39

38:                                               ; preds = %30
  %39 = add nsw i64 %32, %17
  %40 = inttoptr i64 %39 to ptr
  %41 = add nsw i64 %35, %18
  %42 = inttoptr i64 %41 to ptr
  %43 = add i32 %.0, -1
  %.not31 = icmp eq i32 %43, 0
  br i1 %.not31, label %44, label %19, !llvm.loop !40

44:                                               ; preds = %38
  ret void
}